target datalayout = "e-m:e-p270:32:32-p271:32:32-p272:64:64-i64:64-i128:128-f80:128-n8:16:32:64-S128"
target triple = "x86_64-pc-linux-gnu"

%"class.std::basic_ios" = type { %"class.std::ios_base", ptr, i8, i8, ptr, ptr, ptr, ptr }
%"class.std::ios_base" = type { ptr, i64, i64, i32, i32, i32, ptr, %"struct.std::ios_base::_Words", [8 x %"struct.std::ios_base::_Words"], i32, ptr, %"class.std::locale" }
%"struct.std::ios_base::_Words" = type { ptr, i64 }
%"class.std::locale" = type { ptr }
%class.DFSRndNumGenerator = type { %class.AbsRndNumGenerator, %"class.std::__cxx11::basic_string", i32, i32, i8, ptr, i8, %"class.std::vector" }
%class.AbsRndNumGenerator = type { ptr }
%"class.std::__cxx11::basic_string" = type { %"struct.std::__cxx11::basic_string<char>::_Alloc_hider", i64, %union.anon }
%"struct.std::__cxx11::basic_string<char>::_Alloc_hider" = type { ptr }
%union.anon = type { i64, [8 x i8] }
%"class.std::vector" = type { %"struct.std::_Vector_base" }
%"struct.std::_Vector_base" = type { %"struct.std::_Vector_base<DFSRndNumGenerator::SearchState *, std::allocator<DFSRndNumGenerator::SearchState *>>::_Vector_impl" }
%"struct.std::_Vector_base<DFSRndNumGenerator::SearchState *, std::allocator<DFSRndNumGenerator::SearchState *>>::_Vector_impl" = type { %"struct.std::_Vector_base<DFSRndNumGenerator::SearchState *, std::allocator<DFSRndNumGenerator::SearchState *>>::_Vector_impl_data" }
%"struct.std::_Vector_base<DFSRndNumGenerator::SearchState *, std::allocator<DFSRndNumGenerator::SearchState *>>::_Vector_impl_data" = type { ptr, ptr, ptr }
%"class.std::__cxx11::basic_ostringstream" = type { %"class.std::basic_ostream.base", %"class.std::__cxx11::basic_stringbuf", %"class.std::basic_ios" }
%"class.std::basic_ostream.base" = type { ptr }
%"class.std::__cxx11::basic_stringbuf" = type { %"class.std::basic_streambuf", i32, %"class.std::__cxx11::basic_string" }
%"class.std::basic_streambuf" = type { ptr, ptr, ptr, ptr, ptr, ptr, ptr, %"class.std::locale" }

@.str.12 = private unnamed_addr constant [2 x i8] c"[\00", align 1
@.str.13 = private unnamed_addr constant [2 x i8] c"]\00", align 1
@.str.14 = private unnamed_addr constant [2 x i8] c"(\00", align 1
@.str.15 = private unnamed_addr constant [9 x i8] c", pos = \00", align 1
@.str.16 = private unnamed_addr constant [26 x i8] c", current_decision_depth=\00", align 1
@.str.17 = private unnamed_addr constant [4 x i8] c")->\00", align 1
@.str.18 = private unnamed_addr constant [13 x i8] c"(..., pos = \00", align 1

; Function Attrs: mustprogress uwtable
define dso_local void @_ZN18DFSRndNumGenerator9log_depthEiPKNSt7__cxx1112basic_stringIcSt11char_traitsIcESaIcEEEPKc(ptr noundef nonnull align 8 dereferenceable(96) %0, i32 noundef %1, ptr noundef %2, ptr noundef %3) #5 align 2 personality ptr @__gxx_personality_v0 {
  %5 = alloca ptr, align 8
  %6 = alloca i32, align 4
  %7 = alloca ptr, align 8
  %8 = alloca ptr, align 8
  %9 = alloca %"class.std::__cxx11::basic_ostringstream", align 8
  %10 = alloca ptr, align 8
  %11 = alloca i32, align 4
  %12 = alloca %"class.std::__cxx11::basic_string", align 8
  store ptr %0, ptr %5, align 8
  store i32 %1, ptr %6, align 4
  store ptr %2, ptr %7, align 8
  store ptr %3, ptr %8, align 8
  %13 = load ptr, ptr %5, align 8
  call void @_ZNSt7__cxx1119basic_ostringstreamIcSt11char_traitsIcESaIcEEC1Ev(ptr noundef nonnull align 8 dereferenceable(112) %9)
  %14 = load ptr, ptr %8, align 8
  %15 = icmp ne ptr %14, null
  br i1 %15, label %16, label %28

16:                                               ; preds = %4
  %17 = invoke noundef nonnull align 8 dereferenceable(8) ptr @_ZStlsISt11char_traitsIcEERSt13basic_ostreamIcT_ES5_PKc(ptr noundef nonnull align 8 dereferenceable(8) %9, ptr noundef @.str.12)
          to label %18 unwind label %24

18:                                               ; preds = %16
  %19 = load ptr, ptr %8, align 8
  %20 = invoke noundef nonnull align 8 dereferenceable(8) ptr @_ZStlsISt11char_traitsIcEERSt13basic_ostreamIcT_ES5_PKc(ptr noundef nonnull align 8 dereferenceable(8) %17, ptr noundef %19)
          to label %21 unwind label %24

21:                                               ; preds = %18
  %22 = invoke noundef nonnull align 8 dereferenceable(8) ptr @_ZStlsISt11char_traitsIcEERSt13basic_ostreamIcT_ES5_PKc(ptr noundef nonnull align 8 dereferenceable(8) %20, ptr noundef @.str.13)
          to label %23 unwind label %24

23:                                               ; preds = %21
  br label %28

24:                                               ; preds = %72, %69, %65, %63, %59, %57, %54, %51, %47, %45, %41, %39, %36, %34, %31, %21, %18, %16
  %25 = landingpad { ptr, i32 }
          cleanup
  %26 = extractvalue { ptr, i32 } %25, 0
  store ptr %26, ptr %10, align 8
  %27 = extractvalue { ptr, i32 } %25, 1
  store i32 %27, ptr %11, align 4
  br label %81

28:                                               ; preds = %23, %4
  %29 = load ptr, ptr %7, align 8
  %30 = icmp ne ptr %29, null
  br i1 %30, label %31, label %54

31:                                               ; preds = %28
  %32 = load i32, ptr %6, align 4
  %33 = invoke noundef nonnull align 8 dereferenceable(8) ptr @_ZNSolsEi(ptr noundef nonnull align 8 dereferenceable(8) %9, i32 noundef %32)
          to label %34 unwind label %24

34:                                               ; preds = %31
  %35 = invoke noundef nonnull align 8 dereferenceable(8) ptr @_ZStlsISt11char_traitsIcEERSt13basic_ostreamIcT_ES5_PKc(ptr noundef nonnull align 8 dereferenceable(8) %33, ptr noundef @.str.14)
          to label %36 unwind label %24

36:                                               ; preds = %34
  %37 = load ptr, ptr %7, align 8
  %38 = invoke noundef nonnull align 8 dereferenceable(8) ptr @_ZStlsIcSt11char_traitsIcESaIcEERSt13basic_ostreamIT_T0_ES7_RKNSt7__cxx1112basic_stringIS4_S5_T1_EE(ptr noundef nonnull align 8 dereferenceable(8) %35, ptr noundef nonnull align 8 dereferenceable(32) %37)
          to label %39 unwind label %24

39:                                               ; preds = %36
  %40 = invoke noundef nonnull align 8 dereferenceable(8) ptr @_ZStlsISt11char_traitsIcEERSt13basic_ostreamIcT_ES5_PKc(ptr noundef nonnull align 8 dereferenceable(8) %38, ptr noundef @.str.15)
          to label %41 unwind label %24

41:                                               ; preds = %39
  %42 = getelementptr inbounds %class.DFSRndNumGenerator, ptr %13, i32 0, i32 3
  %43 = load i32, ptr %42, align 4
  %44 = invoke noundef nonnull align 8 dereferenceable(8) ptr @_ZNSolsEi(ptr noundef nonnull align 8 dereferenceable(8) %40, i32 noundef %43)
          to label %45 unwind label %24

45:                                               ; preds = %41
  %46 = invoke noundef nonnull align 8 dereferenceable(8) ptr @_ZStlsISt11char_traitsIcEERSt13basic_ostreamIcT_ES5_PKc(ptr noundef nonnull align 8 dereferenceable(8) %44, ptr noundef @.str.16)
          to label %47 unwind label %24

47:                                               ; preds = %45
  %48 = getelementptr inbounds %class.DFSRndNumGenerator, ptr %13, i32 0, i32 2
  %49 = load i32, ptr %48, align 8
  %50 = invoke noundef nonnull align 8 dereferenceable(8) ptr @_ZNSolsEi(ptr noundef nonnull align 8 dereferenceable(8) %46, i32 noundef %49)
          to label %51 unwind label %24

51:                                               ; preds = %47
  %52 = invoke noundef nonnull align 8 dereferenceable(8) ptr @_ZStlsISt11char_traitsIcEERSt13basic_ostreamIcT_ES5_PKc(ptr noundef nonnull align 8 dereferenceable(8) %50, ptr noundef @.str.17)
          to label %53 unwind label %24

53:                                               ; preds = %51
  br label %72

54:                                               ; preds = %28
  %55 = load i32, ptr %6, align 4
  %56 = invoke noundef nonnull align 8 dereferenceable(8) ptr @_ZNSolsEi(ptr noundef nonnull align 8 dereferenceable(8) %9, i32 noundef %55)
          to label %57 unwind label %24

57:                                               ; preds = %54
  %58 = invoke noundef nonnull align 8 dereferenceable(8) ptr @_ZStlsISt11char_traitsIcEERSt13basic_ostreamIcT_ES5_PKc(ptr noundef nonnull align 8 dereferenceable(8) %56, ptr noundef @.str.18)
          to label %59 unwind label %24

59:                                               ; preds = %57
  %60 = getelementptr inbounds %class.DFSRndNumGenerator, ptr %13, i32 0, i32 3
  %61 = load i32, ptr %60, align 4
  %62 = invoke noundef nonnull align 8 dereferenceable(8) ptr @_ZNSolsEi(ptr noundef nonnull align 8 dereferenceable(8) %58, i32 noundef %61)
          to label %63 unwind label %24

63:                                               ; preds = %59
  %64 = invoke noundef nonnull align 8 dereferenceable(8) ptr @_ZStlsISt11char_traitsIcEERSt13basic_ostreamIcT_ES5_PKc(ptr noundef nonnull align 8 dereferenceable(8) %62, ptr noundef @.str.16)
          to label %65 unwind label %24

65:                                               ; preds = %63
  %66 = getelementptr inbounds %class.DFSRndNumGenerator, ptr %13, i32 0, i32 2
  %67 = load i32, ptr %66, align 8
  %68 = invoke noundef nonnull align 8 dereferenceable(8) ptr @_ZNSolsEi(ptr noundef nonnull align 8 dereferenceable(8) %64, i32 noundef %67)
          to label %69 unwind label %24

69:                                               ; preds = %65
  %70 = invoke noundef nonnull align 8 dereferenceable(8) ptr @_ZStlsISt11char_traitsIcEERSt13basic_ostreamIcT_ES5_PKc(ptr noundef nonnull align 8 dereferenceable(8) %68, ptr noundef @.str.17)
          to label %71 unwind label %24

71:                                               ; preds = %69
  br label %72

72:                                               ; preds = %71, %53
  invoke void @_ZNKSt7__cxx1119basic_ostringstreamIcSt11char_traitsIcESaIcEE3strEv(ptr dead_on_unwind writable sret(%"class.std::__cxx11::basic_string") align 8 %12, ptr noundef nonnull align 8 dereferenceable(112) %9)
          to label %73 unwind label %24

73:                                               ; preds = %72
  %74 = getelementptr inbounds %class.DFSRndNumGenerator, ptr %13, i32 0, i32 1
  %75 = invoke noundef nonnull align 8 dereferenceable(32) ptr @_ZNSt7__cxx1112basic_stringIcSt11char_traitsIcESaIcEEpLERKS4_(ptr noundef nonnull align 8 dereferenceable(32) %74, ptr noundef nonnull align 8 dereferenceable(32) %12)
          to label %76 unwind label %77

76:                                               ; preds = %73
  call void @_ZNSt7__cxx1112basic_stringIcSt11char_traitsIcESaIcEED1Ev(ptr noundef nonnull align 8 dereferenceable(32) %12) #3
  call void @_ZNSt7__cxx1119basic_ostringstreamIcSt11char_traitsIcESaIcEED1Ev(ptr noundef nonnull align 8 dereferenceable(112) %9) #3
  ret void

77:                                               ; preds = %73
  %78 = landingpad { ptr, i32 }
          cleanup
  %79 = extractvalue { ptr, i32 } %78, 0
  store ptr %79, ptr %10, align 8
  %80 = extractvalue { ptr, i32 } %78, 1
  store i32 %80, ptr %11, align 4
  call void @_ZNSt7__cxx1112basic_stringIcSt11char_traitsIcESaIcEED1Ev(ptr noundef nonnull align 8 dereferenceable(32) %12) #3
  br label %81

81:                                               ; preds = %77, %24
  call void @_ZNSt7__cxx1119basic_ostringstreamIcSt11char_traitsIcESaIcEED1Ev(ptr noundef nonnull align 8 dereferenceable(112) %9) #3
  br label %82

82:                                               ; preds = %81
  %83 = load ptr, ptr %10, align 8
  %84 = load i32, ptr %11, align 4
  %85 = insertvalue { ptr, i32 } poison, ptr %83, 0
  %86 = insertvalue { ptr, i32 } %85, i32 %84, 1
  resume { ptr, i32 } %86
}