; Function Attrs: mustprogress uwtable
define dso_local void @_ZN18DFSRndNumGenerator9log_depthEiPKNSt7__cxx1112basic_stringIcSt11char_traitsIcESaIcEEEPKc(ptr noundef nonnull align 8 dereferenceable(96) %0, i32 noundef %1, ptr noundef %2, ptr noundef %3) local_unnamed_addr #6 align 2 personality ptr @__gxx_personality_v0 {
  %5 = alloca %"class.std::__cxx11::basic_ostringstream", align 8
  %6 = alloca %"class.std::__cxx11::basic_string", align 8
  call void @_ZNSt7__cxx1119basic_ostringstreamIcSt11char_traitsIcESaIcEEC1Ev(ptr noundef nonnull align 8 dereferenceable(112) %5)
  %.not = icmp eq ptr %3, null
  br i1 %.not, label %15, label %7

7:                                                ; preds = %4
  %8 = invoke noundef nonnull align 8 dereferenceable(8) ptr @_ZStlsISt11char_traitsIcEERSt13basic_ostreamIcT_ES5_PKc(ptr noundef nonnull align 8 dereferenceable(8) %5, ptr noundef nonnull @.str.12)
          to label %9 unwind label %13

9:                                                ; preds = %7
  %10 = invoke noundef nonnull align 8 dereferenceable(8) ptr @_ZStlsISt11char_traitsIcEERSt13basic_ostreamIcT_ES5_PKc(ptr noundef nonnull align 8 dereferenceable(8) %8, ptr noundef nonnull %3)
          to label %11 unwind label %13

11:                                               ; preds = %9
  %12 = invoke noundef nonnull align 8 dereferenceable(8) ptr @_ZStlsISt11char_traitsIcEERSt13basic_ostreamIcT_ES5_PKc(ptr noundef nonnull align 8 dereferenceable(8) %10, ptr noundef nonnull @.str.13)
          to label %15 unwind label %13

13:                                               ; preds = %.invoke16, %.invoke15, %.invoke14, %.invoke13, %.invoke, %35, %22, %20, %18, %16, %11, %9, %7
  %14 = landingpad { ptr, i32 }
          cleanup
  br label %42

15:                                               ; preds = %11, %4
  %.not11 = icmp eq ptr %2, null
  br i1 %.not11, label %22, label %16

16:                                               ; preds = %15
  %17 = invoke noundef nonnull align 8 dereferenceable(8) ptr @_ZNSolsEi(ptr noundef nonnull align 8 dereferenceable(8) %5, i32 noundef %1)
          to label %18 unwind label %13

18:                                               ; preds = %16
  %19 = invoke noundef nonnull align 8 dereferenceable(8) ptr @_ZStlsISt11char_traitsIcEERSt13basic_ostreamIcT_ES5_PKc(ptr noundef nonnull align 8 dereferenceable(8) %17, ptr noundef nonnull @.str.14)
          to label %20 unwind label %13

20:                                               ; preds = %18
  %21 = invoke noundef nonnull align 8 dereferenceable(8) ptr @_ZStlsIcSt11char_traitsIcESaIcEERSt13basic_ostreamIT_T0_ES7_RKNSt7__cxx1112basic_stringIS4_S5_T1_EE(ptr noundef nonnull align 8 dereferenceable(8) %19, ptr noundef nonnull align 8 dereferenceable(32) %2)
          to label %.invoke16 unwind label %13

22:                                               ; preds = %15
  %23 = invoke noundef nonnull align 8 dereferenceable(8) ptr @_ZNSolsEi(ptr noundef nonnull align 8 dereferenceable(8) %5, i32 noundef %1)
          to label %.invoke16 unwind label %13

.invoke16:                                        ; preds = %22, %20
  %24 = phi ptr [ %21, %20 ], [ %23, %22 ]
  %25 = phi ptr [ @.str.15, %20 ], [ @.str.18, %22 ]
  %26 = invoke noundef nonnull align 8 dereferenceable(8) ptr @_ZStlsISt11char_traitsIcEERSt13basic_ostreamIcT_ES5_PKc(ptr noundef nonnull align 8 dereferenceable(8) %24, ptr noundef nonnull %25)
          to label %.invoke15 unwind label %13

.invoke15:                                        ; preds = %.invoke16
  %27 = getelementptr inbounds i8, ptr %0, i64 44
  %28 = load i32, ptr %27, align 4
  %29 = invoke noundef nonnull align 8 dereferenceable(8) ptr @_ZNSolsEi(ptr noundef nonnull align 8 dereferenceable(8) %26, i32 noundef %28)
          to label %.invoke14 unwind label %13

.invoke14:                                        ; preds = %.invoke15
  %30 = invoke noundef nonnull align 8 dereferenceable(8) ptr @_ZStlsISt11char_traitsIcEERSt13basic_ostreamIcT_ES5_PKc(ptr noundef nonnull align 8 dereferenceable(8) %29, ptr noundef nonnull @.str.16)
          to label %.invoke13 unwind label %13

.invoke13:                                        ; preds = %.invoke14
  %31 = getelementptr inbounds i8, ptr %0, i64 40
  %32 = load i32, ptr %31, align 8
  %33 = invoke noundef nonnull align 8 dereferenceable(8) ptr @_ZNSolsEi(ptr noundef nonnull align 8 dereferenceable(8) %30, i32 noundef %32)
          to label %.invoke unwind label %13

.invoke:                                          ; preds = %.invoke13
  %34 = invoke noundef nonnull align 8 dereferenceable(8) ptr @_ZStlsISt11char_traitsIcEERSt13basic_ostreamIcT_ES5_PKc(ptr noundef nonnull align 8 dereferenceable(8) %33, ptr noundef nonnull @.str.17)
          to label %35 unwind label %13

35:                                               ; preds = %.invoke
  invoke void @_ZNKSt7__cxx1119basic_ostringstreamIcSt11char_traitsIcESaIcEE3strEv(ptr dead_on_unwind nonnull writable sret(%"class.std::__cxx11::basic_string") align 8 %6, ptr noundef nonnull align 8 dereferenceable(112) %5)
          to label %36 unwind label %13

36:                                               ; preds = %35
  %37 = getelementptr inbounds i8, ptr %0, i64 8
  %38 = invoke noundef nonnull align 8 dereferenceable(32) ptr @_ZNSt7__cxx1112basic_stringIcSt11char_traitsIcESaIcEEpLERKS4_(ptr noundef nonnull align 8 dereferenceable(32) %37, ptr noundef nonnull align 8 dereferenceable(32) %6)
          to label %39 unwind label %40

39:                                               ; preds = %36
  call void @_ZNSt7__cxx1112basic_stringIcSt11char_traitsIcESaIcEED1Ev(ptr noundef nonnull align 8 dereferenceable(32) %6) #18
  call void @_ZNSt7__cxx1119basic_ostringstreamIcSt11char_traitsIcESaIcEED1Ev(ptr noundef nonnull align 8 dereferenceable(112) %5) #18
  ret void

40:                                               ; preds = %36
  %41 = landingpad { ptr, i32 }
          cleanup
  call void @_ZNSt7__cxx1112basic_stringIcSt11char_traitsIcESaIcEED1Ev(ptr noundef nonnull align 8 dereferenceable(32) %6) #18
  br label %42

42:                                               ; preds = %40, %13
  %.pn = phi { ptr, i32 } [ %41, %40 ], [ %14, %13 ]
  call void @_ZNSt7__cxx1119basic_ostringstreamIcSt11char_traitsIcESaIcEED1Ev(ptr noundef nonnull align 8 dereferenceable(112) %5) #18
  resume { ptr, i32 } %.pn
}